; Function Attrs: null_pointer_is_valid sspstrong uwtable
define internal i32 @dissect_qsig_PSS1InformationElement_U(i1 noundef zeroext %0, ptr noundef %1, i32 noundef %2, ptr noundef %3, ptr noundef %4, i32 noundef %5) #0 {
  %7 = alloca ptr, align 8
  call void @llvm.lifetime.start.p0(i64 8, ptr nonnull %7) #5
  store ptr null, ptr %7, align 8
  %8 = call i32 @dissect_ber_octet_string(i1 noundef zeroext %0, ptr noundef %3, ptr noundef %4, ptr noundef %1, i32 noundef %2, i32 noundef %5, ptr noundef nonnull %7)
  %9 = getelementptr inbounds nuw i8, ptr %3, i64 24
  %10 = load ptr, ptr %9, align 8
  %11 = load i32, ptr @ett_cnq_PSS1InformationElement, align 4
  %12 = call ptr @proto_item_add_subtree(ptr noundef %10, i32 noundef %11)
  %13 = load ptr, ptr %7, align 8
  %.not = icmp eq ptr %13, null
  br i1 %.not, label %24, label %14

14:                                               ; preds = %6
  %15 = call i32 @tvb_reported_length(ptr noundef nonnull %13)
  %16 = icmp ne i32 %15, 0
  %17 = load ptr, ptr @q931_ie_handle, align 8
  %18 = icmp ne ptr %17, null
  %or.cond = select i1 %16, i1 %18, i1 false
  br i1 %or.cond, label %19, label %24

19:                                               ; preds = %14
  %20 = load ptr, ptr %7, align 8
  %21 = getelementptr inbounds nuw i8, ptr %3, i64 16
  %22 = load ptr, ptr %21, align 8
  %23 = call i32 @call_dissector(ptr noundef nonnull %17, ptr noundef %20, ptr noundef %22, ptr noundef %12)
  br label %24

24:                                               ; preds = %19, %14, %6
  call void @llvm.lifetime.end.p0(i64 8, ptr nonnull %7) #5
  ret i32 %8
}